; Function Attrs: mustprogress uwtable
define noundef i32 @_ZN6icu_7516BuddhistCalendar21handleGetExtendedYearEv(ptr noundef nonnull align 8 dereferenceable(654) %this) unnamed_addr #1 align 2 {
entry:
  %call = tail call noundef i32 @_ZNK6icu_758Calendar10newerFieldE19UCalendarDateFieldsS1_(ptr noundef nonnull align 8 dereferenceable(618) %this, i32 noundef 19, i32 noundef 1)
  %cmp = icmp eq i32 %call, 19
  br i1 %cmp, label %if.then, label %if.else

if.then:                                          ; preds = %entry
  %arrayidx.i = getelementptr inbounds i8, ptr %this, i64 208
  %0 = load i32, ptr %arrayidx.i, align 8
  %cmp.i = icmp sgt i32 %0, 0
  br i1 %cmp.i, label %cond.true.i, label %if.end

cond.true.i:                                      ; preds = %if.then
  %arrayidx3.i = getelementptr inbounds i8, ptr %this, i64 88
  %1 = load i32, ptr %arrayidx3.i, align 8
  br label %if.end

if.else:                                          ; preds = %entry
  %arrayidx.i2 = getelementptr inbounds i8, ptr %this, i64 136
  %2 = load i32, ptr %arrayidx.i2, align 8
  %cmp.i3 = icmp sgt i32 %2, 0
  %arrayidx3.i7 = getelementptr inbounds i8, ptr %this, i64 16
  %3 = load i32, ptr %arrayidx3.i7, align 8
  %4 = add nsw i32 %3, -543
  %add = select i1 %cmp.i3, i32 %4, i32 1970
  br label %if.end

if.end:                                           ; preds = %cond.true.i, %if.then, %if.else
  %year.0 = phi i32 [ %add, %if.else ], [ %1, %cond.true.i ], [ 1970, %if.then ]
  ret i32 %year.0
}